	.arch armv8-a+crc
	.file	"processing.cpp"
	.text
.Ltext0:
	.file 0 "/home/e/CPE442/cpe442/lab5" "processing.cpp"
#APP
	.globl _ZSt21ios_base_library_initv
#NO_APP
	.align	2
	.global	_Z15to442_grayscalePN2cv3MatES1_iiii
	.type	_Z15to442_grayscalePN2cv3MatES1_iiii, %function
_Z15to442_grayscalePN2cv3MatES1_iiii:
.LVL0:
.LFB13761:
	.file 1 "processing.cpp"
	.loc 1 46 1 view -0
	.cfi_startproc
	.loc 1 47 5 view .LVU1
.LBB198:
	.loc 1 47 33 discriminator 1 view .LVU2
	.loc 1 47 44 is_stmt 0 discriminator 1 view .LVU3
	add	w17, w2, w4
	.loc 1 47 33 discriminator 1 view .LVU4
	cmp	w4, 0
	ble	.L12
.LBE198:
	.loc 1 46 1 view .LVU5
	stp	x29, x30, [sp, -16]!
	.cfi_def_cfa_offset 16
	.cfi_offset 29, -16
	.cfi_offset 30, -8
	mov	x29, sp
	movi	v29.4s, 0
.LBB284:
.LBB199:
	.loc 1 49 61 discriminator 1 view .LVU6
	add	w16, w3, w3, lsl 1
	sxtw	x16, w16
	sxtw	x8, w2
	sub	w2, w5, #16
.LVL1:
	.loc 1 49 61 discriminator 1 view .LVU7
	lsr	w15, w2, 4
	add	w15, w15, 1
	ubfiz	x15, x15, 4, 29
	and	w13, w2, -16
	add	w13, w13, 16
	cmp	w5, 15
	csel	w13, w13, wzr, gt
	sxtw	x14, w3
	add	x18, x14, w13, sxtw
	sub	w9, w5, w13
	add	x9, x9, x18
.LBB200:
.LBB201:
.LBB202:
.LBB203:
	.file 2 "/usr/lib/gcc/aarch64-linux-gnu/14/include/arm_neon.h"
	.loc 2 17423 16 view .LVU8
	movi	v23.8h, 0x13
.LBE203:
.LBE202:
.LBB206:
.LBB207:
	.loc 2 4116 43 view .LVU9
	movi	v6.4h, 0xb7
.LBE207:
.LBE206:
.LBB210:
.LBB211:
	movi	v7.4h, 0x36
.LBE211:
.LBE210:
.LBE201:
.LBE200:
.LBB271:
.LBB272:
	.loc 1 88 20 discriminator 1 view .LVU10
	mov	w12, 19
	.loc 1 88 33 discriminator 2 view .LVU11
	mov	w11, 183
	.loc 1 88 45 discriminator 3 view .LVU12
	mov	w10, 54
.LVL2:
.L7:
	.loc 1 88 45 discriminator 3 view .LVU13
.LBE272:
.LBE271:
	.loc 1 49 9 is_stmt 1 view .LVU14
.LBB278:
.LBI278:
	.file 3 "/usr/include/opencv4/opencv2/core/mat.inl.hpp"
	.loc 3 713 6 view .LVU15
.LBB279:
	.loc 3 716 34 is_stmt 0 view .LVU16
	ldr	x2, [x0, 72]
	.loc 3 716 36 view .LVU17
	ldr	x2, [x2]
.LBE279:
.LBE278:
	.loc 1 49 63 discriminator 1 view .LVU18
	madd	x2, x8, x2, x16
	ldr	x3, [x0, 16]
	add	x3, x3, x2
.LVL3:
	.loc 1 50 9 is_stmt 1 view .LVU19
.LBB280:
.LBI280:
	.loc 3 713 6 view .LVU20
.LBB281:
	.loc 3 716 34 is_stmt 0 view .LVU21
	ldr	x2, [x1, 72]
	.loc 3 716 36 view .LVU22
	ldr	x4, [x2]
.LBE281:
.LBE280:
	.loc 1 50 59 discriminator 1 view .LVU23
	madd	x4, x8, x4, x14
	ldr	x2, [x1, 16]
	add	x2, x2, x4
.LVL4:
	.loc 1 52 9 is_stmt 1 view .LVU24
	.loc 1 54 9 view .LVU25
.LBB282:
	.loc 1 54 19 discriminator 1 view .LVU26
	cmp	w5, 15
	ble	.L3
	add	x4, x2, x15
.L4:
.LBB270:
	.loc 1 56 13 view .LVU27
.LVL5:
.LBB213:
.LBI213:
	.loc 2 13943 1 view .LVU28
.LBB214:
	.loc 2 13945 3 view .LVU29
	.loc 2 13945 40 is_stmt 0 view .LVU30
	ld3	{v25.16b - v27.16b}, [x3], 48
.LVL6:
	.loc 2 13945 40 view .LVU31
.LBE214:
.LBE213:
	.loc 1 58 13 is_stmt 1 view .LVU32
.LBB215:
.LBI215:
	.loc 2 3102 1 view .LVU33
.LBB216:
	.loc 2 3104 3 view .LVU34
	.loc 2 3104 3 is_stmt 0 view .LVU35
.LBE216:
.LBE215:
.LBB217:
.LBI217:
	.loc 2 4651 1 is_stmt 1 view .LVU36
.LBB218:
	.loc 2 4653 3 view .LVU37
	.loc 2 4653 40 is_stmt 0 view .LVU38
	zip1	v31.16b, v25.16b, v29.16b
.LVL7:
	.loc 2 4653 40 view .LVU39
.LBE218:
.LBE217:
	.loc 1 59 13 is_stmt 1 view .LVU40
.LBB219:
.LBI219:
	.loc 2 3200 1 view .LVU41
.LBB220:
	.loc 2 3202 3 view .LVU42
	.loc 2 3202 3 is_stmt 0 view .LVU43
.LBE220:
.LBE219:
.LBB221:
.LBI221:
	.loc 2 4651 1 is_stmt 1 view .LVU44
.LBB222:
	.loc 2 4653 3 view .LVU45
	.loc 2 4653 40 is_stmt 0 view .LVU46
	zip2	v30.16b, v25.16b, v29.16b
.LVL8:
	.loc 2 4653 40 view .LVU47
.LBE222:
.LBE221:
	.loc 1 60 13 is_stmt 1 view .LVU48
.LBB223:
.LBI223:
	.loc 2 3102 1 view .LVU49
.LBB224:
	.loc 2 3104 3 view .LVU50
	.loc 2 3104 3 is_stmt 0 view .LVU51
.LBE224:
.LBE223:
.LBB225:
.LBI225:
	.loc 2 4651 1 is_stmt 1 view .LVU52
.LBB226:
	.loc 2 4653 3 view .LVU53
	.loc 2 4653 40 is_stmt 0 view .LVU54
	zip1	v22.16b, v26.16b, v29.16b
.LVL9:
	.loc 2 4653 40 view .LVU55
.LBE226:
.LBE225:
	.loc 1 61 13 is_stmt 1 view .LVU56
.LBB227:
.LBI227:
	.loc 2 3200 1 view .LVU57
.LBB228:
	.loc 2 3202 3 view .LVU58
	.loc 2 3202 3 is_stmt 0 view .LVU59
.LBE228:
.LBE227:
.LBB229:
.LBI229:
	.loc 2 4651 1 is_stmt 1 view .LVU60
.LBB230:
	.loc 2 4653 3 view .LVU61
	.loc 2 4653 40 is_stmt 0 view .LVU62
	zip2	v24.16b, v26.16b, v29.16b
.LVL10:
	.loc 2 4653 40 view .LVU63
.LBE230:
.LBE229:
	.loc 1 62 13 is_stmt 1 view .LVU64
.LBB231:
.LBI231:
	.loc 2 3102 1 view .LVU65
.LBB232:
	.loc 2 3104 3 view .LVU66
	.loc 2 3104 53 is_stmt 0 view .LVU67
	mov	v28.16b, v27.16b
.LVL11:
	.loc 2 3104 53 view .LVU68
.LBE232:
.LBE231:
.LBB233:
.LBI233:
	.loc 2 4651 1 is_stmt 1 view .LVU69
.LBB234:
	.loc 2 4653 3 view .LVU70
	.loc 2 4653 40 is_stmt 0 view .LVU71
	zip1	v27.16b, v27.16b, v29.16b
.LVL12:
	.loc 2 4653 40 view .LVU72
.LBE234:
.LBE233:
	.loc 1 63 13 is_stmt 1 view .LVU73
.LBB235:
.LBI235:
	.loc 2 3200 1 view .LVU74
.LBB236:
	.loc 2 3202 3 view .LVU75
	.loc 2 3202 3 is_stmt 0 view .LVU76
.LBE236:
.LBE235:
.LBB237:
.LBI237:
	.loc 2 4651 1 is_stmt 1 view .LVU77
.LBB238:
	.loc 2 4653 3 view .LVU78
	.loc 2 4653 40 is_stmt 0 view .LVU79
	zip2	v28.16b, v28.16b, v29.16b
.LVL13:
	.loc 2 4653 40 view .LVU80
.LBE238:
.LBE237:
	.loc 1 65 13 is_stmt 1 view .LVU81
.LBB239:
.LBI202:
	.loc 2 17421 1 view .LVU82
.LBB204:
	.loc 2 17423 3 view .LVU83
	.loc 2 17423 3 is_stmt 0 view .LVU84
.LBE204:
.LBE239:
	.loc 1 66 13 is_stmt 1 view .LVU85
.LBB240:
.LBI206:
	.loc 2 4114 1 view .LVU86
.LBB208:
	.loc 2 4116 3 view .LVU87
.LBE208:
.LBE240:
.LBB241:
.LBB205:
	.loc 2 17423 16 is_stmt 0 view .LVU88
	mul	v31.8h, v31.8h, v23.8h
.LVL14:
	.loc 2 17423 16 view .LVU89
.LBE205:
.LBE241:
.LBB242:
.LBB209:
	.loc 2 4116 43 view .LVU90
	mla	v31.8h, v22.8h, v6.h[0]
.LVL15:
	.loc 2 4116 43 view .LVU91
.LBE209:
.LBE242:
	.loc 1 67 13 is_stmt 1 view .LVU92
.LBB243:
.LBI210:
	.loc 2 4114 1 view .LVU93
.LBB212:
	.loc 2 4116 3 view .LVU94
	.loc 2 4116 43 is_stmt 0 view .LVU95
	mla	v31.8h, v27.8h, v7.h[0]
.LVL16:
	.loc 2 4116 43 view .LVU96
.LBE212:
.LBE243:
	.loc 1 69 13 is_stmt 1 view .LVU97
.LBB244:
.LBI244:
	.loc 2 17421 1 view .LVU98
.LBB245:
	.loc 2 17423 3 view .LVU99
	.loc 2 17423 3 is_stmt 0 view .LVU100
.LBE245:
.LBE244:
	.loc 1 70 13 is_stmt 1 view .LVU101
.LBB247:
.LBI247:
	.loc 2 4114 1 view .LVU102
.LBB248:
	.loc 2 4116 3 view .LVU103
.LBE248:
.LBE247:
.LBB250:
.LBB246:
	.loc 2 17423 16 is_stmt 0 view .LVU104
	mul	v30.8h, v30.8h, v23.8h
.LVL17:
	.loc 2 17423 16 view .LVU105
.LBE246:
.LBE250:
.LBB251:
.LBB249:
	.loc 2 4116 43 view .LVU106
	mla	v30.8h, v24.8h, v6.h[0]
.LVL18:
	.loc 2 4116 43 view .LVU107
.LBE249:
.LBE251:
	.loc 1 71 13 is_stmt 1 view .LVU108
.LBB252:
.LBI252:
	.loc 2 4114 1 view .LVU109
.LBB253:
	.loc 2 4116 3 view .LVU110
	.loc 2 4116 43 is_stmt 0 view .LVU111
	mla	v30.8h, v28.8h, v7.h[0]
.LVL19:
	.loc 2 4116 43 view .LVU112
.LBE253:
.LBE252:
	.loc 1 73 13 is_stmt 1 view .LVU113
.LBB254:
.LBI254:
	.loc 2 21440 1 view .LVU114
.LBB255:
	.loc 2 21442 3 view .LVU115
	.loc 2 21442 3 is_stmt 0 view .LVU116
.LBE255:
.LBE254:
	.loc 1 74 13 is_stmt 1 view .LVU117
.LBB256:
.LBI256:
	.loc 2 21440 1 view .LVU118
.LBB257:
	.loc 2 21442 3 view .LVU119
	.loc 2 21442 3 is_stmt 0 view .LVU120
.LBE257:
.LBE256:
	.loc 1 76 13 is_stmt 1 view .LVU121
.LBB258:
.LBI258:
	.loc 2 18406 1 view .LVU122
.LBB259:
	.loc 2 18408 3 view .LVU123
	.loc 2 18408 51 is_stmt 0 view .LVU124
	uqshrn	v31.8b, v31.8h, 8
.LVL20:
	.loc 2 18408 51 view .LVU125
.LBE259:
.LBE258:
.LBB260:
.LBI260:
	.loc 2 18406 1 is_stmt 1 view .LVU126
.LBB261:
	.loc 2 18408 3 view .LVU127
	.loc 2 18408 3 is_stmt 0 view .LVU128
.LBE261:
.LBE260:
.LBB262:
.LBI262:
	.loc 2 3271 1 is_stmt 1 view .LVU129
.LBB263:
	.loc 2 3273 3 view .LVU130
	.loc 2 3273 3 is_stmt 0 view .LVU131
.LBE263:
.LBE262:
	.loc 1 78 13 is_stmt 1 view .LVU132
.LBB265:
.LBI265:
	.loc 2 22160 1 view .LVU133
.LBB266:
	.loc 2 22162 3 view .LVU134
.LBE266:
.LBE265:
.LBB268:
.LBB264:
	.loc 2 3273 44 is_stmt 0 view .LVU135
	uqshrn2	v31.16b, v30.8h, 8
.LVL21:
	.loc 2 3273 44 view .LVU136
.LBE264:
.LBE268:
.LBB269:
.LBB267:
	.loc 2 22162 33 view .LVU137
	str	q31, [x2], 16
.LVL22:
	.loc 2 22162 33 view .LVU138
.LBE267:
.LBE269:
	.loc 1 80 13 is_stmt 1 view .LVU139
	.loc 1 81 13 view .LVU140
	.loc 1 81 13 is_stmt 0 view .LVU141
.LBE270:
	.loc 1 54 9 is_stmt 1 discriminator 2 view .LVU142
	.loc 1 54 19 discriminator 1 view .LVU143
	cmp	x2, x4
	bne	.L4
.LVL23:
.L3:
	.loc 1 54 19 is_stmt 0 discriminator 1 view .LVU144
.LBE282:
.LBB283:
	.loc 1 84 19 is_stmt 1 discriminator 1 view .LVU145
	cmp	w5, w13
	ble	.L5
	mov	x2, x18
.LVL24:
.L6:
.LBB277:
	.loc 1 86 13 view .LVU146
.LBB273:
.LBI273:
	.loc 3 894 6 view .LVU147
.LBB274:
	.loc 3 901 35 is_stmt 0 view .LVU148
	ldr	x3, [x0, 72]
	.loc 3 901 37 view .LVU149
	ldr	x3, [x3]
	.loc 3 901 43 view .LVU150
	add	x4, x2, x2, lsl 1
	madd	x3, x8, x3, x4
	.loc 3 901 46 view .LVU151
	ldr	x6, [x0, 16]
	add	x7, x6, x3
.LVL25:
	.loc 3 901 46 view .LVU152
.LBE274:
.LBE273:
	.loc 1 87 13 is_stmt 1 view .LVU153
	.loc 1 90 13 view .LVU154
.LBB275:
.LBI275:
	.loc 3 894 6 view .LVU155
.LBB276:
	.loc 3 901 35 is_stmt 0 view .LVU156
	ldr	x4, [x1, 72]
	.loc 3 901 37 view .LVU157
	ldr	x4, [x4]
.LBE276:
.LBE275:
	.loc 1 90 52 discriminator 1 view .LVU158
	ldr	x30, [x1, 16]
	madd	x4, x8, x4, x30
	.loc 1 88 20 discriminator 1 view .LVU159
	ldrb	w6, [x6, x3]
	.loc 1 88 33 discriminator 2 view .LVU160
	ldrb	w3, [x7, 1]
.LVL26:
	.loc 1 88 33 discriminator 2 view .LVU161
	mul	w3, w3, w11
.LVL27:
	.loc 1 88 28 discriminator 2 view .LVU162
	madd	w6, w6, w12, w3
	.loc 1 88 45 discriminator 3 view .LVU163
	ldrb	w3, [x7, 2]
	.loc 1 88 41 discriminator 3 view .LVU164
	madd	w3, w3, w10, w6
	.loc 1 88 54 discriminator 3 view .LVU165
	asr	w3, w3, 8
	.loc 1 88 57 discriminator 3 view .LVU166
	strb	w3, [x4, x2]
.LVL28:
	.loc 1 88 57 discriminator 3 view .LVU167
.LBE277:
	.loc 1 84 9 is_stmt 1 discriminator 2 view .LVU168
	.loc 1 84 19 discriminator 1 view .LVU169
	add	x2, x2, 1
.LVL29:
	.loc 1 84 19 is_stmt 0 discriminator 1 view .LVU170
	cmp	x2, x9
	bne	.L6
.LVL30:
.L5:
	.loc 1 84 19 discriminator 1 view .LVU171
.LBE283:
.LBE199:
	.loc 1 47 5 is_stmt 1 discriminator 2 view .LVU172
	.loc 1 47 33 discriminator 1 view .LVU173
	add	x8, x8, 1
.LVL31:
	.loc 1 47 33 is_stmt 0 discriminator 1 view .LVU174
	cmp	w17, w8
	bgt	.L7
.LBE284:
	.loc 1 93 1 view .LVU175
	ldp	x29, x30, [sp], 16
	.cfi_restore 30
	.cfi_restore 29
	.cfi_def_cfa_offset 0
	ret
.LVL32:
.L12:
	.loc 1 93 1 view .LVU176
	ret
	.cfi_endproc
.LFE13761:
	.size	_Z15to442_grayscalePN2cv3MatES1_iiii, .-_Z15to442_grayscalePN2cv3MatES1_iiii
	.align	2
	.global	_Z11to442_sobelPN2cv3MatES1_iiii
	.type	_Z11to442_sobelPN2cv3MatES1_iiii, %function
_Z11to442_sobelPN2cv3MatES1_iiii:
.LVL33:
.LFB13762:
	.loc 1 118 68 is_stmt 1 view -0
	.cfi_startproc
	.loc 1 118 68 is_stmt 0 view .LVU178
	sub	sp, sp, #48
	.cfi_def_cfa_offset 48
	mov	x13, x0
	mov	x14, x1
	mov	w1, w2
.LVL34:
	.loc 1 118 68 view .LVU179
	mov	w0, w3
.LVL35:
	.loc 1 118 68 view .LVU180
	mov	w3, w5
.LVL36:
	.loc 1 119 5 is_stmt 1 view .LVU181
	.loc 1 119 13 is_stmt 0 view .LVU182
	adrp	x2, .LANCHOR0
.LVL37:
	.loc 1 119 13 view .LVU183
	add	x2, x2, :lo12:.LANCHOR0
	ldp	x6, x7, [x2]
	ldrh	w5, [x2, 16]
.LVL38:
	.loc 1 119 13 view .LVU184
	stp	x6, x7, [sp, 24]
	strh	w5, [sp, 40]
	.loc 1 120 5 is_stmt 1 view .LVU185
	.loc 1 120 13 is_stmt 0 view .LVU186
	ldp	x6, x7, [x2, 24]
	ldrh	w2, [x2, 40]
	stp	x6, x7, [sp]
	strh	w2, [sp, 16]
	.loc 1 121 5 is_stmt 1 view .LVU187
	.loc 1 123 5 view .LVU188
.LBB285:
	.loc 1 123 14 is_stmt 0 view .LVU189
	add	w16, w1, 1
.LVL39:
	.loc 1 123 30 is_stmt 1 discriminator 1 view .LVU190
	.loc 1 123 34 is_stmt 0 discriminator 1 view .LVU191
	add	w1, w1, w4
.LVL40:
	.loc 1 123 36 discriminator 1 view .LVU192
	sub	w2, w1, #1
	.loc 1 123 30 discriminator 1 view .LVU193
	cmp	w16, w2
	bge	.L15
	movi	v28.4s, 0
	sxtw	x12, w16
	sub	x12, x12, #1
	mov	w18, w2
.LBB286:
	.loc 1 124 18 view .LVU194
	add	w17, w0, 1
	.loc 1 124 38 discriminator 1 view .LVU195
	add	w0, w0, w3
.LVL41:
	.loc 1 124 40 discriminator 1 view .LVU196
	sub	w15, w0, #1
.LBB287:
.LBB288:
.LBB289:
.LBB290:
	.loc 1 135 56 view .LVU197
	add	x8, sp, 24
	.loc 1 136 56 view .LVU198
	mov	x7, sp
	b	.L21
.LVL42:
.L17:
	.loc 1 136 56 view .LVU199
.LBE290:
.LBE289:
.LBE288:
.LBE287:
.LBE286:
	.loc 1 123 5 is_stmt 1 discriminator 2 view .LVU200
	add	w16, w16, 1
.LVL43:
	.loc 1 123 30 discriminator 1 view .LVU201
	add	x12, x12, 1
	cmp	w16, w18
	beq	.L15
.L21:
	.loc 1 123 30 is_stmt 0 discriminator 1 view .LVU202
.LBE285:
	.loc 1 124 9 is_stmt 1 view .LVU203
.LVL44:
.LBB344:
.LBB341:
	.loc 1 124 34 discriminator 1 view .LVU204
	cmp	w17, w15
	bge	.L17
	.loc 1 124 34 is_stmt 0 discriminator 1 view .LVU205
	sxtw	x9, w17
.LVL45:
.L18:
.LBB338:
.LBB315:
	.loc 1 128 32 is_stmt 1 discriminator 1 view .LVU206
.LBB310:
.LBB311:
	.loc 3 716 19 is_stmt 0 view .LVU207
	ldr	x11, [x13, 16]
	.loc 3 716 34 view .LVU208
	ldr	x0, [x13, 72]
	ldr	x10, [x0]
	madd	x6, x10, x12, x9
	mov	x4, -6
.LBE311:
.LBE310:
.LBE315:
	.loc 1 127 44 view .LVU209
	movi	v29.4s, 0
	.loc 1 126 44 view .LVU210
	mov	v30.16b, v29.16b
.LVL46:
.L20:
	.loc 1 126 44 view .LVU211
.LBE338:
.LBE341:
.LBE344:
	.loc 1 129 17 is_stmt 1 view .LVU212
.LBB345:
.LBB342:
.LBB339:
.LBB316:
.LBB312:
.LBI310:
	.loc 3 713 6 view .LVU213
	.loc 3 713 6 is_stmt 0 view .LVU214
.LBE312:
.LBE316:
.LBE339:
.LBE342:
.LBE345:
	.loc 1 130 17 is_stmt 1 view .LVU215
.LBB346:
.LBB343:
.LBB340:
.LBB317:
.LBB313:
	.loc 1 130 35 discriminator 1 view .LVU216
.LBE313:
.LBE317:
	.loc 1 126 44 is_stmt 0 view .LVU217
	mov	x1, x4
	mov	x0, -1
.LBB318:
.LBB314:
.LBB309:
.LBB291:
.LBB292:
	.loc 2 12278 39 view .LVU218
	add	x5, x11, x6
.LVL47:
.L19:
	.loc 2 12278 39 view .LVU219
.LBE292:
.LBE291:
	.loc 1 131 21 is_stmt 1 view .LVU220
.LBB295:
.LBI291:
	.loc 2 12276 1 view .LVU221
.LBB293:
	.loc 2 12278 3 view .LVU222
	.loc 2 12278 3 is_stmt 0 view .LVU223
.LBE293:
.LBE295:
	.loc 1 132 21 is_stmt 1 view .LVU224
.LBB296:
.LBI296:
	.loc 2 4651 1 view .LVU225
.LBB297:
	.loc 2 4653 3 view .LVU226
.LBE297:
.LBE296:
.LBB299:
.LBB294:
	.loc 2 12278 39 is_stmt 0 view .LVU227
	ldr	d31, [x5, x0]
.LBE294:
.LBE299:
.LBB300:
.LBB298:
	.loc 2 4653 40 view .LVU228
	zip1	v31.16b, v31.16b, v28.16b
.LVL48:
	.loc 2 4653 40 view .LVU229
.LBE298:
.LBE300:
	.loc 1 133 21 is_stmt 1 view .LVU230
	.loc 1 135 21 view .LVU231
	.loc 1 135 56 is_stmt 0 view .LVU232
	add	x2, x1, x8
	ldrsh	w3, [x2, 6]
.LVL49:
.LBB301:
.LBI301:
	.loc 2 17393 1 is_stmt 1 view .LVU233
.LBB302:
	.loc 2 17395 3 view .LVU234
	.loc 2 17395 3 is_stmt 0 view .LVU235
.LBE302:
.LBE301:
	.loc 1 136 21 is_stmt 1 view .LVU236
	.loc 1 136 56 is_stmt 0 view .LVU237
	add	x2, x1, x7
.LVL50:
	.loc 1 136 56 view .LVU238
	ldrsh	w2, [x2, 6]
.LVL51:
.LBB303:
.LBI303:
	.loc 2 17393 1 is_stmt 1 view .LVU239
.LBB304:
	.loc 2 17395 3 view .LVU240
	.loc 2 17395 3 is_stmt 0 view .LVU241
.LBE304:
.LBE303:
	.loc 1 138 21 is_stmt 1 view .LVU242
.LBB305:
.LBI305:
	.loc 2 315 1 view .LVU243
.LBB306:
	.loc 2 317 3 view .LVU244
	.loc 2 317 16 is_stmt 0 view .LVU245
	dup	v7.4h, w3
	mla	v30.8h, v31.8h, v7.h[0]
.LVL52:
	.loc 2 317 16 view .LVU246
.LBE306:
.LBE305:
	.loc 1 139 21 is_stmt 1 view .LVU247
.LBB307:
.LBI307:
	.loc 2 315 1 view .LVU248
.LBB308:
	.loc 2 317 3 view .LVU249
	.loc 2 317 16 is_stmt 0 view .LVU250
	dup	v7.4h, w2
	mla	v29.8h, v31.8h, v7.h[0]
.LVL53:
	.loc 2 317 16 view .LVU251
.LBE308:
.LBE307:
.LBE309:
	.loc 1 130 17 is_stmt 1 discriminator 3 view .LVU252
	.loc 1 130 35 discriminator 1 view .LVU253
	add	x0, x0, 1
.LVL54:
	.loc 1 130 35 is_stmt 0 discriminator 1 view .LVU254
	add	x1, x1, 2
.LVL55:
	.loc 1 130 35 discriminator 1 view .LVU255
	cmp	x0, 2
	bne	.L19
.LBE314:
	.loc 1 128 13 is_stmt 1 discriminator 2 view .LVU256
.LVL56:
	.loc 1 128 32 discriminator 1 view .LVU257
	add	x4, x4, 6
.LVL57:
	.loc 1 128 32 is_stmt 0 discriminator 1 view .LVU258
	add	x6, x6, x10
.LVL58:
	.loc 1 128 32 discriminator 1 view .LVU259
	cmp	x4, 12
	bne	.L20
.LBE318:
	.loc 1 142 13 is_stmt 1 view .LVU260
.LVL59:
.LBB319:
.LBI319:
	.loc 2 6872 1 view .LVU261
.LBB320:
	.loc 2 6874 3 view .LVU262
	.loc 2 6874 36 is_stmt 0 view .LVU263
	abs	v30.8h, v30.8h
.LVL60:
	.loc 2 6874 36 view .LVU264
.LBE320:
.LBE319:
	.loc 1 143 13 is_stmt 1 view .LVU265
.LBB321:
.LBI321:
	.loc 2 6872 1 view .LVU266
.LBB322:
	.loc 2 6874 3 view .LVU267
	.loc 2 6874 36 is_stmt 0 view .LVU268
	abs	v29.8h, v29.8h
.LVL61:
	.loc 2 6874 36 view .LVU269
.LBE322:
.LBE321:
	.loc 1 145 13 is_stmt 1 view .LVU270
.LBB323:
.LBI323:
	.loc 2 315 1 view .LVU271
.LBB324:
	.loc 2 317 3 view .LVU272
	.loc 2 317 3 is_stmt 0 view .LVU273
.LBE324:
.LBE323:
	.loc 1 147 13 is_stmt 1 view .LVU274
.LBB326:
.LBI326:
	.loc 2 18471 1 view .LVU275
.LBB327:
	.loc 2 18473 3 view .LVU276
.LBE327:
.LBE326:
.LBB329:
.LBB325:
	.loc 2 317 16 is_stmt 0 view .LVU277
	add	v30.8h, v30.8h, v29.8h
.LVL62:
	.loc 2 317 16 view .LVU278
.LBE325:
.LBE329:
.LBB330:
.LBB328:
	.loc 2 18473 43 view .LVU279
	sqxtun	v30.8b, v30.8h
.LVL63:
	.loc 2 18473 43 view .LVU280
.LBE328:
.LBE330:
	.loc 1 149 13 is_stmt 1 view .LVU281
.LBB331:
.LBI331:
	.loc 3 713 6 view .LVU282
	.loc 3 713 6 is_stmt 0 view .LVU283
.LBE331:
	.loc 1 150 13 is_stmt 1 view .LVU284
.LBB333:
.LBI333:
	.loc 2 22060 1 view .LVU285
.LBB334:
	.loc 2 22062 3 view .LVU286
.LBE334:
.LBE333:
.LBB336:
.LBB332:
	.loc 3 716 34 is_stmt 0 view .LVU287
	ldr	x0, [x14, 72]
	.loc 3 716 36 view .LVU288
	ldr	x0, [x0]
.LBE332:
.LBE336:
.LBB337:
.LBB335:
	.loc 2 22062 32 view .LVU289
	ldr	x1, [x14, 16]
.LVL64:
	.loc 2 22062 32 view .LVU290
	add	x1, x1, x9
	madd	x0, x12, x0, x1
	str	d30, [x0, -1]
.LVL65:
	.loc 2 22062 32 view .LVU291
.LBE335:
.LBE337:
.LBE340:
	.loc 1 124 9 is_stmt 1 discriminator 2 view .LVU292
	.loc 1 124 34 discriminator 1 view .LVU293
	add	x9, x9, 8
.LVL66:
	.loc 1 124 34 is_stmt 0 discriminator 1 view .LVU294
	cmp	w15, w9
	bgt	.L18
	b	.L17
.LVL67:
.L15:
	.loc 1 124 34 discriminator 1 view .LVU295
.LBE343:
.LBE346:
	.loc 1 153 1 view .LVU296
	add	sp, sp, 48
	.cfi_def_cfa_offset 0
	ret
	.cfi_endproc
.LFE13762:
	.size	_Z11to442_sobelPN2cv3MatES1_iiii, .-_Z11to442_sobelPN2cv3MatES1_iiii
	.section	.rodata
	.align	3
	.set	.LANCHOR0,. + 0
.LC0:
	.hword	-1
	.hword	0
	.hword	1
	.hword	-2
	.hword	0
	.hword	2
	.hword	-1
	.hword	0
	.hword	1
	.zero	6
.LC1:
	.hword	1
	.hword	2
	.hword	1
	.hword	0
	.hword	0
	.hword	0
	.hword	-1
	.hword	-2
	.hword	-1
	.text
.Letext0:
	.file 4 "/usr/include/c++/14/cstddef"
	.file 5 "/usr/include/c++/14/cstdint"
	.file 6 "/usr/include/c++/14/type_traits"
	.file 7 "/usr/include/aarch64-linux-gnu/c++/14/bits/c++config.h"
	.file 8 "/usr/include/c++/14/bits/stl_iterator_base_types.h"
	.file 9 "/usr/include/c++/14/debug/debug.h"
	.file 10 "/usr/include/c++/14/new"
	.file 11 "/usr/include/c++/14/cstdlib"
	.file 12 "/usr/include/c++/14/cstring"
	.file 13 "/usr/include/c++/14/cwchar"
	.file 14 "/usr/include/c++/14/bits/char_traits.h"
	.file 15 "/usr/include/c++/14/bits/new_allocator.h"
	.file 16 "/usr/include/c++/14/bits/allocator.h"
	.file 17 "/usr/include/c++/14/clocale"
	.file 18 "/usr/include/c++/14/string_view"
	.file 19 "/usr/include/c++/14/cstdio"
	.file 20 "/usr/include/c++/14/bits/alloc_traits.h"
	.file 21 "/usr/include/c++/14/bits/basic_string.h"
	.file 22 "/usr/include/c++/14/initializer_list"
	.file 23 "/usr/include/c++/14/cmath"
	.file 24 "/usr/include/c++/14/bits/std_abs.h"
	.file 25 "/usr/include/c++/14/bits/exception_ptr.h"
	.file 26 "/usr/include/c++/14/bits/shared_ptr_base.h"
	.file 27 "/usr/include/c++/14/bits/stl_bvector.h"
	.file 28 "/usr/include/c++/14/bits/stl_iterator.h"
	.file 29 "/usr/include/c++/14/bits/stl_vector.h"
	.file 30 "/usr/include/c++/14/bits/vector.tcc"
	.file 31 "/usr/include/c++/14/bits/shared_ptr.h"
	.file 32 "/usr/include/c++/14/bits/stringfwd.h"
	.file 33 "/usr/include/c++/14/cwctype"
	.file 34 "/usr/include/c++/14/bits/charconv.h"
	.file 35 "/usr/include/c++/14/functional"
	.file 36 "/usr/include/c++/14/ctime"
	.file 37 "/usr/include/c++/14/bits/chrono.h"
	.file 38 "/usr/include/c++/14/bits/algorithmfwd.h"
	.file 39 "/usr/include/c++/14/iosfwd"
	.file 40 "/usr/include/c++/14/bits/stl_tree.h"
	.file 41 "/usr/include/c++/14/bits/stl_pair.h"
	.file 42 "/usr/include/c++/14/bits/stl_function.h"
	.file 43 "/usr/include/c++/14/bits/stl_map.h"
	.file 44 "/usr/include/c++/14/ratio"
	.file 45 "/usr/lib/gcc/aarch64-linux-gnu/14/include/stddef.h"
	.file 46 "/usr/include/aarch64-linux-gnu/bits/types.h"
	.file 47 "/usr/include/aarch64-linux-gnu/bits/stdint-intn.h"
	.file 48 "/usr/include/aarch64-linux-gnu/bits/stdint-uintn.h"
	.file 49 "/usr/include/aarch64-linux-gnu/bits/stdint-least.h"
	.file 50 "/usr/include/stdint.h"
	.file 51 "/usr/include/opencv4/opencv2/core/hal/interface.h"
	.file 52 "/usr/include/opencv4/opencv2/core/cvdef.h"
	.file 53 "/usr/include/opencv4/opencv2/core/cvstd.hpp"
	.file 54 "/usr/include/opencv4/opencv2/core/cvstd_wrapper.hpp"
	.file 55 "/usr/include/opencv4/opencv2/core/base.hpp"
	.file 56 "/usr/include/opencv4/opencv2/core/check.hpp"
	.file 57 "/usr/include/opencv4/opencv2/core/matx.hpp"
	.file 58 "/usr/include/opencv4/opencv2/core/matx.inl.hpp"
	.file 59 "/usr/include/opencv4/opencv2/core/types.hpp"
	.file 60 "/usr/include/opencv4/opencv2/core/traits.hpp"
	.file 61 "/usr/include/opencv4/opencv2/core/mat.hpp"
	.file 62 "/usr/include/opencv4/opencv2/core/cuda.hpp"
	.file 63 "/usr/include/opencv4/opencv2/flann/miniflann.hpp"
	.file 64 "/usr/include/opencv4/opencv2/flann.hpp"
	.file 65 "/usr/include/opencv4/opencv2/core/utility.hpp"
	.file 66 "/usr/include/opencv4/opencv2/core/utils/logger.defines.hpp"
	.file 67 "/usr/include/opencv4/opencv2/calib3d.hpp"
	.file 68 "/usr/include/opencv4/opencv2/dnn/../dnn/version.hpp"
	.file 69 "/usr/include/opencv4/opencv2/./imgproc/segmentation.hpp"
	.file 70 "/usr/include/c++/14/bits/memory_resource.h"
	.file 71 "/usr/include/opencv4/opencv2/ml.hpp"
	.file 72 "/usr/include/opencv4/opencv2/objdetect/aruco_dictionary.hpp"
	.file 73 "/usr/include/opencv4/opencv2/objdetect/barcode.hpp"
	.file 74 "/usr/include/opencv4/opencv2/core/operations.hpp"
	.file 75 "/usr/include/c++/14/bits/predefined_ops.h"
	.file 76 "/usr/include/c++/14/ext/alloc_traits.h"
	.file 77 "/usr/include/c++/14/ext/concurrence.h"
	.file 78 "/usr/include/c++/14/ext/aligned_buffer.h"
	.file 79 "/usr/include/stdlib.h"
	.file 80 "/usr/include/aarch64-linux-gnu/bits/types/clock_t.h"
	.file 81 "/usr/include/aarch64-linux-gnu/bits/types/time_t.h"
	.file 82 "/usr/include/aarch64-linux-gnu/bits/types/struct_timespec.h"
	.file 83 "/usr/include/aarch64-linux-gnu/bits/stdlib-float.h"
	.file 84 "/usr/include/aarch64-linux-gnu/bits/stdlib-bsearch.h"
	.file 85 "/usr/include/c++/14/pstl/execution_defs.h"
	.file 86 "/usr/include/string.h"
	.file 87 "/usr/lib/gcc/aarch64-linux-gnu/14/include/stdarg.h"
	.file 88 "/usr/include/aarch64-linux-gnu/bits/types/wint_t.h"
	.file 89 "/usr/include/aarch64-linux-gnu/bits/types/__mbstate_t.h"
	.file 90 "/usr/include/aarch64-linux-gnu/bits/types/mbstate_t.h"
	.file 91 "/usr/include/aarch64-linux-gnu/bits/types/__FILE.h"
	.file 92 "/usr/include/aarch64-linux-gnu/bits/types/struct_FILE.h"
	.file 93 "/usr/include/aarch64-linux-gnu/bits/types/FILE.h"
	.file 94 "/usr/include/wchar.h"
	.file 95 "/usr/include/aarch64-linux-gnu/bits/types/struct_tm.h"
	.file 96 "/usr/include/locale.h"
	.file 97 "/usr/include/aarch64-linux-gnu/bits/types/__fpos_t.h"
	.file 98 "/usr/include/stdio.h"
	.file 99 "/usr/include/aarch64-linux-gnu/bits/stdio.h"
	.file 100 "/usr/include/math.h"
	.file 101 "/usr/include/aarch64-linux-gnu/c++/14/bits/atomic_word.h"
	.file 102 "/usr/include/aarch64-linux-gnu/bits/wctype-wchar.h"
	.file 103 "/usr/include/wctype.h"
	.file 104 "/usr/include/time.h"
	.file 105 "/usr/include/opencv4/opencv2/flann/defines.h"
	.file 106 "/usr/include/opencv4/opencv2/flann/any.h"
	.file 107 "/usr/include/opencv4/opencv2/flann/dist.h"
	.file 108 "/usr/include/opencv4/opencv2/flann/allocator.h"
	.file 109 "/usr/include/opencv4/opencv2/flann/lsh_table.h"
	.file 110 "/usr/include/opencv4/opencv2/flann/params.h"
	.file 111 "/usr/include/c++/14/stdlib.h"
	.file 112 "/usr/include/c++/14/math.h"
	.file 113 "processing.hpp"
	.file 114 "<built-in>"